target datalayout = "e-m:e-p270:32:32-p271:32:32-p272:64:64-i64:64-i128:128-f80:128-n8:16:32:64-S128"
target triple = "x86_64-pc-linux-gnu"

%struct.Vec_Wrd_t_ = type { i32, i32, ptr }

@.str = private unnamed_addr constant [3 x i8] c"rb\00", align 1
@.str.1 = private unnamed_addr constant [36 x i8] c"Cannot open file \22%s\22 for reading.\0A\00", align 1
@.str.8 = private unnamed_addr constant [88 x i8] c"Cannot read file with simulation data that is not aligned at 8 bytes (remainder = %d).\0A\00", align 1
@.str.9 = private unnamed_addr constant [90 x i8] c"Read %d words of simulation data for %d inputs and %d outputs (padded %d zero-patterns).\0A\00", align 1

; Function Attrs: inlinehint nounwind uwtable
define internal ptr @Vec_WrdAlloc(i32 noundef %0) #3 {
  %2 = alloca i32, align 4
  %3 = alloca ptr, align 8
  store i32 %0, ptr %2, align 4, !tbaa !14
  call void @llvm.lifetime.start.p0(i64 8, ptr %3) #13
  %4 = call noalias ptr @malloc(i64 noundef 16) #15
  store ptr %4, ptr %3, align 8, !tbaa !71
  %5 = load i32, ptr %2, align 4, !tbaa !14
  %6 = icmp sgt i32 %5, 0
  br i1 %6, label %7, label %11

7:                                                ; preds = %1
  %8 = load i32, ptr %2, align 4, !tbaa !14
  %9 = icmp slt i32 %8, 16
  br i1 %9, label %10, label %11

10:                                               ; preds = %7
  store i32 16, ptr %2, align 4, !tbaa !14
  br label %11

11:                                               ; preds = %10, %7, %1
  %12 = load ptr, ptr %3, align 8, !tbaa !71
  %13 = getelementptr inbounds nuw %struct.Vec_Wrd_t_, ptr %12, i32 0, i32 1
  store i32 0, ptr %13, align 4, !tbaa !76
  %14 = load i32, ptr %2, align 4, !tbaa !14
  %15 = load ptr, ptr %3, align 8, !tbaa !71
  %16 = getelementptr inbounds nuw %struct.Vec_Wrd_t_, ptr %15, i32 0, i32 0
  store i32 %14, ptr %16, align 8, !tbaa !197
  %17 = load ptr, ptr %3, align 8, !tbaa !71
  %18 = getelementptr inbounds nuw %struct.Vec_Wrd_t_, ptr %17, i32 0, i32 0
  %19 = load i32, ptr %18, align 8, !tbaa !197
  %20 = icmp ne i32 %19, 0
  br i1 %20, label %21, label %28

21:                                               ; preds = %11
  %22 = load ptr, ptr %3, align 8, !tbaa !71
  %23 = getelementptr inbounds nuw %struct.Vec_Wrd_t_, ptr %22, i32 0, i32 0
  %24 = load i32, ptr %23, align 8, !tbaa !197
  %25 = sext i32 %24 to i64
  %26 = mul i64 8, %25
  %27 = call noalias ptr @malloc(i64 noundef %26) #15
  br label %29

28:                                               ; preds = %11
  br label %29

29:                                               ; preds = %28, %21
  %30 = phi ptr [ %27, %21 ], [ null, %28 ]
  %31 = load ptr, ptr %3, align 8, !tbaa !71
  %32 = getelementptr inbounds nuw %struct.Vec_Wrd_t_, ptr %31, i32 0, i32 2
  store ptr %30, ptr %32, align 8, !tbaa !78
  %33 = load ptr, ptr %3, align 8, !tbaa !71
  call void @llvm.lifetime.end.p0(i64 8, ptr %3) #13
  ret ptr %33
}

; Function Attrs: inlinehint nounwind uwtable
define internal void @Abc_TtXorBit(ptr noundef %0, i32 noundef %1) #3 {
  %3 = alloca ptr, align 8
  %4 = alloca i32, align 4
  store ptr %0, ptr %3, align 8, !tbaa !30
  store i32 %1, ptr %4, align 4, !tbaa !14
  %5 = load i32, ptr %4, align 4, !tbaa !14
  %6 = and i32 %5, 63
  %7 = zext i32 %6 to i64
  %8 = shl i64 1, %7
  %9 = load ptr, ptr %3, align 8, !tbaa !30
  %10 = load i32, ptr %4, align 4, !tbaa !14
  %11 = ashr i32 %10, 6
  %12 = sext i32 %11 to i64
  %13 = getelementptr inbounds i64, ptr %9, i64 %12
  %14 = load i64, ptr %13, align 8, !tbaa !79
  %15 = xor i64 %14, %8
  store i64 %15, ptr %13, align 8, !tbaa !79
  ret void
}

; Function Attrs: inlinehint nounwind uwtable
define internal ptr @Vec_WrdArray(ptr noundef %0) #3 {
  %2 = alloca ptr, align 8
  store ptr %0, ptr %2, align 8, !tbaa !71
  %3 = load ptr, ptr %2, align 8, !tbaa !71
  %4 = getelementptr inbounds nuw %struct.Vec_Wrd_t_, ptr %3, i32 0, i32 2
  %5 = load ptr, ptr %4, align 8, !tbaa !78
  ret ptr %5
}

; Function Attrs: inlinehint nounwind uwtable
define internal ptr @Vec_WrdStart(i32 noundef %0) #3 {
  %2 = alloca i32, align 4
  %3 = alloca ptr, align 8
  store i32 %0, ptr %2, align 4, !tbaa !14
  call void @llvm.lifetime.start.p0(i64 8, ptr %3) #13
  %4 = load i32, ptr %2, align 4, !tbaa !14
  %5 = call ptr @Vec_WrdAlloc(i32 noundef %4)
  store ptr %5, ptr %3, align 8, !tbaa !71
  %6 = load i32, ptr %2, align 4, !tbaa !14
  %7 = load ptr, ptr %3, align 8, !tbaa !71
  %8 = getelementptr inbounds nuw %struct.Vec_Wrd_t_, ptr %7, i32 0, i32 1
  store i32 %6, ptr %8, align 4, !tbaa !76
  %9 = load ptr, ptr %3, align 8, !tbaa !71
  %10 = getelementptr inbounds nuw %struct.Vec_Wrd_t_, ptr %9, i32 0, i32 2
  %11 = load ptr, ptr %10, align 8, !tbaa !78
  %12 = load i32, ptr %2, align 4, !tbaa !14
  %13 = sext i32 %12 to i64
  %14 = mul i64 8, %13
  call void @llvm.memset.p0.i64(ptr align 8 %11, i8 0, i64 %14, i1 false)
  %15 = load ptr, ptr %3, align 8, !tbaa !71
  call void @llvm.lifetime.end.p0(i64 8, ptr %3) #13
  ret ptr %15
}

; Function Attrs: nounwind uwtable
define void @Vec_WrdReadText(ptr noundef %0, ptr noundef %1, ptr noundef %2, i32 noundef %3, i32 noundef %4) #0 {
  %6 = alloca ptr, align 8
  %7 = alloca ptr, align 8
  %8 = alloca ptr, align 8
  %9 = alloca i32, align 4
  %10 = alloca i32, align 4
  %11 = alloca i32, align 4
  %12 = alloca i32, align 4
  %13 = alloca i32, align 4
  %14 = alloca i32, align 4
  %15 = alloca i32, align 4
  %16 = alloca [2000 x i8], align 16
  %17 = alloca ptr, align 8
  %18 = alloca ptr, align 8
  %19 = alloca ptr, align 8
  %20 = alloca i32, align 4
  store ptr %0, ptr %6, align 8, !tbaa !3
  store ptr %1, ptr %7, align 8, !tbaa !69
  store ptr %2, ptr %8, align 8, !tbaa !69
  store i32 %3, ptr %9, align 4, !tbaa !14
  store i32 %4, ptr %10, align 4, !tbaa !14
  call void @llvm.lifetime.start.p0(i64 4, ptr %11) #13
  call void @llvm.lifetime.start.p0(i64 4, ptr %12) #13
  call void @llvm.lifetime.start.p0(i64 4, ptr %13) #13
  call void @llvm.lifetime.start.p0(i64 4, ptr %14) #13
  call void @llvm.lifetime.start.p0(i64 4, ptr %15) #13
  call void @llvm.lifetime.start.p0(i64 2000, ptr %16) #13
  call void @llvm.lifetime.start.p0(i64 8, ptr %17) #13
  call void @llvm.lifetime.start.p0(i64 8, ptr %18) #13
  call void @llvm.lifetime.start.p0(i64 8, ptr %19) #13
  %21 = load ptr, ptr %6, align 8, !tbaa !3
  %22 = call noalias ptr @fopen(ptr noundef %21, ptr noundef @.str)
  store ptr %22, ptr %19, align 8, !tbaa !10
  %23 = load ptr, ptr %19, align 8, !tbaa !10
  %24 = icmp eq ptr %23, null
  br i1 %24, label %25, label %28

25:                                               ; preds = %5
  %26 = load ptr, ptr %6, align 8, !tbaa !3
  %27 = call i32 (ptr, ...) @printf(ptr noundef @.str.1, ptr noundef %26)
  store i32 1, ptr %20, align 4
  br label %154

28:                                               ; preds = %5
  %29 = load ptr, ptr %19, align 8, !tbaa !10
  %30 = call i32 @fseek(ptr noundef %29, i64 noundef 0, i32 noundef 2)
  %31 = load ptr, ptr %19, align 8, !tbaa !10
  %32 = call i64 @ftell(ptr noundef %31)
  %33 = trunc i64 %32 to i32
  store i32 %33, ptr %12, align 4, !tbaa !14
  %34 = load i32, ptr %12, align 4, !tbaa !14
  %35 = load i32, ptr %9, align 4, !tbaa !14
  %36 = load i32, ptr %10, align 4, !tbaa !14
  %37 = add nsw i32 %35, %36
  %38 = add nsw i32 %37, 1
  %39 = srem i32 %34, %38
  %40 = icmp sgt i32 %39, 0
  br i1 %40, label %41, label %51

41:                                               ; preds = %28
  %42 = load i32, ptr %12, align 4, !tbaa !14
  %43 = load i32, ptr %9, align 4, !tbaa !14
  %44 = load i32, ptr %10, align 4, !tbaa !14
  %45 = add nsw i32 %43, %44
  %46 = add nsw i32 %45, 1
  %47 = srem i32 %42, %46
  %48 = call i32 (ptr, ...) @printf(ptr noundef @.str.8, i32 noundef %47)
  %49 = load ptr, ptr %19, align 8, !tbaa !10
  %50 = call i32 @fclose(ptr noundef %49)
  store i32 1, ptr %20, align 4
  br label %154

51:                                               ; preds = %28
  %52 = load ptr, ptr %19, align 8, !tbaa !10
  call void @rewind(ptr noundef %52)
  %53 = load i32, ptr %12, align 4, !tbaa !14
  %54 = load i32, ptr %9, align 4, !tbaa !14
  %55 = load i32, ptr %10, align 4, !tbaa !14
  %56 = add nsw i32 %54, %55
  %57 = add nsw i32 %56, 1
  %58 = sdiv i32 %53, %57
  store i32 %58, ptr %14, align 4, !tbaa !14
  %59 = load i32, ptr %14, align 4, !tbaa !14
  %60 = add nsw i32 %59, 63
  %61 = sdiv i32 %60, 64
  store i32 %61, ptr %15, align 4, !tbaa !14
  %62 = load i32, ptr %9, align 4, !tbaa !14
  %63 = load i32, ptr %15, align 4, !tbaa !14
  %64 = mul nsw i32 %62, %63
  %65 = call ptr @Vec_WrdStart(i32 noundef %64)
  store ptr %65, ptr %17, align 8, !tbaa !71
  %66 = load i32, ptr %10, align 4, !tbaa !14
  %67 = load i32, ptr %15, align 4, !tbaa !14
  %68 = mul nsw i32 %66, %67
  %69 = call ptr @Vec_WrdStart(i32 noundef %68)
  store ptr %69, ptr %18, align 8, !tbaa !71
  store i32 0, ptr %13, align 4, !tbaa !14
  br label %70

70:                                               ; preds = %136, %51
  %71 = getelementptr inbounds [2000 x i8], ptr %16, i64 0, i64 0
  %72 = load ptr, ptr %19, align 8, !tbaa !10
  %73 = call ptr @fgets(ptr noundef %71, i32 noundef 2000, ptr noundef %72)
  %74 = icmp ne ptr %73, null
  br i1 %74, label %75, label %139

75:                                               ; preds = %70
  store i32 0, ptr %11, align 4, !tbaa !14
  br label %76

76:                                               ; preds = %101, %75
  %77 = load i32, ptr %11, align 4, !tbaa !14
  %78 = load i32, ptr %9, align 4, !tbaa !14
  %79 = icmp slt i32 %77, %78
  br i1 %79, label %80, label %104

80:                                               ; preds = %76
  %81 = load i32, ptr %9, align 4, !tbaa !14
  %82 = sub nsw i32 %81, 1
  %83 = load i32, ptr %11, align 4, !tbaa !14
  %84 = sub nsw i32 %82, %83
  %85 = sext i32 %84 to i64
  %86 = getelementptr inbounds [2000 x i8], ptr %16, i64 0, i64 %85
  %87 = load i8, ptr %86, align 1, !tbaa !72
  %88 = sext i8 %87 to i32
  %89 = icmp eq i32 %88, 49
  br i1 %89, label %90, label %99

90:                                               ; preds = %80
  %91 = load ptr, ptr %17, align 8, !tbaa !71
  %92 = call ptr @Vec_WrdArray(ptr noundef %91)
  %93 = load i32, ptr %11, align 4, !tbaa !14
  %94 = load i32, ptr %15, align 4, !tbaa !14
  %95 = mul nsw i32 %93, %94
  %96 = sext i32 %95 to i64
  %97 = getelementptr inbounds i64, ptr %92, i64 %96
  %98 = load i32, ptr %13, align 4, !tbaa !14
  call void @Abc_TtXorBit(ptr noundef %97, i32 noundef %98)
  br label %100

99:                                               ; preds = %80
  br label %100

100:                                              ; preds = %99, %90
  br label %101

101:                                              ; preds = %100
  %102 = load i32, ptr %11, align 4, !tbaa !14
  %103 = add nsw i32 %102, 1
  store i32 %103, ptr %11, align 4, !tbaa !14
  br label %76, !llvm.loop !73

104:                                              ; preds = %76
  store i32 0, ptr %11, align 4, !tbaa !14
  br label %105

105:                                              ; preds = %132, %104
  %106 = load i32, ptr %11, align 4, !tbaa !14
  %107 = load i32, ptr %10, align 4, !tbaa !14
  %108 = icmp slt i32 %106, %107
  br i1 %108, label %109, label %135

109:                                              ; preds = %105
  %110 = load i32, ptr %9, align 4, !tbaa !14
  %111 = load i32, ptr %10, align 4, !tbaa !14
  %112 = add nsw i32 %110, %111
  %113 = sub nsw i32 %112, 1
  %114 = load i32, ptr %11, align 4, !tbaa !14
  %115 = sub nsw i32 %113, %114
  %116 = sext i32 %115 to i64
  %117 = getelementptr inbounds [2000 x i8], ptr %16, i64 0, i64 %116
  %118 = load i8, ptr %117, align 1, !tbaa !72
  %119 = sext i8 %118 to i32
  %120 = icmp eq i32 %119, 49
  br i1 %120, label %121, label %130

121:                                              ; preds = %109
  %122 = load ptr, ptr %18, align 8, !tbaa !71
  %123 = call ptr @Vec_WrdArray(ptr noundef %122)
  %124 = load i32, ptr %11, align 4, !tbaa !14
  %125 = load i32, ptr %15, align 4, !tbaa !14
  %126 = mul nsw i32 %124, %125
  %127 = sext i32 %126 to i64
  %128 = getelementptr inbounds i64, ptr %123, i64 %127
  %129 = load i32, ptr %13, align 4, !tbaa !14
  call void @Abc_TtXorBit(ptr noundef %128, i32 noundef %129)
  br label %131

130:                                              ; preds = %109
  br label %131

131:                                              ; preds = %130, %121
  br label %132

132:                                              ; preds = %131
  %133 = load i32, ptr %11, align 4, !tbaa !14
  %134 = add nsw i32 %133, 1
  store i32 %134, ptr %11, align 4, !tbaa !14
  br label %105, !llvm.loop !74

135:                                              ; preds = %105
  br label %136

136:                                              ; preds = %135
  %137 = load i32, ptr %13, align 4, !tbaa !14
  %138 = add nsw i32 %137, 1
  store i32 %138, ptr %13, align 4, !tbaa !14
  br label %70, !llvm.loop !75

139:                                              ; preds = %70
  %140 = load ptr, ptr %19, align 8, !tbaa !10
  %141 = call i32 @fclose(ptr noundef %140)
  %142 = load ptr, ptr %17, align 8, !tbaa !71
  %143 = load ptr, ptr %7, align 8, !tbaa !69
  store ptr %142, ptr %143, align 8, !tbaa !71
  %144 = load ptr, ptr %18, align 8, !tbaa !71
  %145 = load ptr, ptr %8, align 8, !tbaa !69
  store ptr %144, ptr %145, align 8, !tbaa !71
  %146 = load i32, ptr %15, align 4, !tbaa !14
  %147 = load i32, ptr %9, align 4, !tbaa !14
  %148 = load i32, ptr %10, align 4, !tbaa !14
  %149 = load i32, ptr %15, align 4, !tbaa !14
  %150 = mul nsw i32 %149, 64
  %151 = load i32, ptr %14, align 4, !tbaa !14
  %152 = sub nsw i32 %150, %151
  %153 = call i32 (ptr, ...) @printf(ptr noundef @.str.9, i32 noundef %146, i32 noundef %147, i32 noundef %148, i32 noundef %152)
  store i32 0, ptr %20, align 4
  br label %154

154:                                              ; preds = %139, %41, %25
  call void @llvm.lifetime.end.p0(i64 8, ptr %19) #13
  call void @llvm.lifetime.end.p0(i64 8, ptr %18) #13
  call void @llvm.lifetime.end.p0(i64 8, ptr %17) #13
  call void @llvm.lifetime.end.p0(i64 2000, ptr %16) #13
  call void @llvm.lifetime.end.p0(i64 4, ptr %15) #13
  call void @llvm.lifetime.end.p0(i64 4, ptr %14) #13
  call void @llvm.lifetime.end.p0(i64 4, ptr %13) #13
  call void @llvm.lifetime.end.p0(i64 4, ptr %12) #13
  call void @llvm.lifetime.end.p0(i64 4, ptr %11) #13
  %155 = load i32, ptr %20, align 4
  switch i32 %155, label %157 [
    i32 0, label %156
    i32 1, label %156
  ]

156:                                              ; preds = %154, %154
  ret void

157:                                              ; preds = %154
  unreachable
}