; Function Attrs: nofree nounwind uwtable
define void @Vec_WrdReadText(ptr noundef %0, ptr noundef writeonly captures(none) %1, ptr noundef writeonly captures(none) %2, i32 noundef %3, i32 noundef %4) local_unnamed_addr #9 {
  %6 = alloca [2000 x i8], align 16
  call void @llvm.lifetime.start.p0(i64 2000, ptr nonnull %6) #24
  %7 = tail call noalias ptr @fopen(ptr noundef %0, ptr noundef nonnull @.str)
  %8 = icmp eq ptr %7, null
  br i1 %8, label %9, label %11

9:                                                ; preds = %5
  %10 = tail call i32 (ptr, ...) @printf(ptr noundef nonnull dereferenceable(1) @.str.1, ptr noundef %0)
  br label %127

11:                                               ; preds = %5
  %12 = tail call i32 @fseek(ptr noundef nonnull %7, i64 noundef 0, i32 noundef 2)
  %13 = tail call i64 @ftell(ptr noundef nonnull %7)
  %14 = trunc i64 %13 to i32
  %15 = add nsw i32 %4, %3
  %16 = add nsw i32 %15, 1
  %17 = srem i32 %14, %16
  %18 = sdiv i32 %14, %16
  %19 = icmp sgt i32 %17, 0
  br i1 %19, label %20, label %23

20:                                               ; preds = %11
  %21 = tail call i32 (ptr, ...) @printf(ptr noundef nonnull dereferenceable(1) @.str.8, i32 noundef %17)
  %22 = tail call i32 @fclose(ptr noundef nonnull %7)
  br label %127

23:                                               ; preds = %11
  tail call void @rewind(ptr noundef nonnull %7)
  %24 = add nsw i32 %18, 63
  %25 = sdiv i32 %24, 64
  %26 = mul nsw i32 %25, %3
  %27 = tail call noalias dereferenceable_or_null(16) ptr @malloc(i64 noundef 16) #25
  %28 = add i32 %26, -1
  %or.cond.i.i = icmp ult i32 %28, 15
  %spec.store.select.i.i = select i1 %or.cond.i.i, i32 16, i32 %26
  store i32 %spec.store.select.i.i, ptr %27, align 8, !tbaa !56
  %.not.i.i = icmp eq i32 %spec.store.select.i.i, 0
  br i1 %.not.i.i, label %Vec_WrdStart.exit, label %29

29:                                               ; preds = %23
  %30 = sext i32 %spec.store.select.i.i to i64
  %31 = shl nsw i64 %30, 3
  %32 = tail call noalias ptr @malloc(i64 noundef %31) #25
  br label %Vec_WrdStart.exit

Vec_WrdStart.exit:                                ; preds = %23, %29
  %.val.us.us = phi ptr [ %32, %29 ], [ null, %23 ]
  %33 = getelementptr inbounds nuw i8, ptr %27, i64 4
  %34 = getelementptr inbounds nuw i8, ptr %27, i64 8
  store ptr %.val.us.us, ptr %34, align 8, !tbaa !59
  store i32 %26, ptr %33, align 4, !tbaa !60
  %35 = sext i32 %26 to i64
  %36 = shl nsw i64 %35, 3
  tail call void @llvm.memset.p0.i64(ptr align 8 %.val.us.us, i8 0, i64 %36, i1 false)
  %37 = mul nsw i32 %25, %4
  %38 = tail call noalias dereferenceable_or_null(16) ptr @malloc(i64 noundef 16) #25
  %39 = add i32 %37, -1
  %or.cond.i.i56 = icmp ult i32 %39, 15
  %spec.store.select.i.i57 = select i1 %or.cond.i.i56, i32 16, i32 %37
  store i32 %spec.store.select.i.i57, ptr %38, align 8, !tbaa !56
  %.not.i.i58 = icmp eq i32 %spec.store.select.i.i57, 0
  br i1 %.not.i.i58, label %Vec_WrdStart.exit59, label %40

40:                                               ; preds = %Vec_WrdStart.exit
  %41 = sext i32 %spec.store.select.i.i57 to i64
  %42 = shl nsw i64 %41, 3
  %43 = tail call noalias ptr @malloc(i64 noundef %42) #25
  br label %Vec_WrdStart.exit59

Vec_WrdStart.exit59:                              ; preds = %Vec_WrdStart.exit, %40
  %.val55.us.us = phi ptr [ %43, %40 ], [ null, %Vec_WrdStart.exit ]
  %44 = getelementptr inbounds nuw i8, ptr %38, i64 4
  %45 = getelementptr inbounds nuw i8, ptr %38, i64 8
  store ptr %.val55.us.us, ptr %45, align 8, !tbaa !59
  store i32 %37, ptr %44, align 4, !tbaa !60
  %46 = sext i32 %37 to i64
  %47 = shl nsw i64 %46, 3
  tail call void @llvm.memset.p0.i64(ptr align 8 %.val55.us.us, i8 0, i64 %47, i1 false)
  %48 = call ptr @fgets(ptr noundef nonnull %6, i32 noundef 2000, ptr noundef nonnull %7)
  %.not64 = icmp eq ptr %48, null
  br i1 %.not64, label %._crit_edge66, label %.preheader60.lr.ph

.preheader60.lr.ph:                               ; preds = %Vec_WrdStart.exit59
  %49 = icmp sgt i32 %3, 0
  %50 = icmp sgt i32 %4, 0
  br i1 %49, label %.preheader60.lr.ph.split.us, label %.preheader60.lr.ph.split

.preheader60.lr.ph.split.us:                      ; preds = %.preheader60.lr.ph
  %51 = zext nneg i32 %3 to i64
  %52 = sext i32 %25 to i64
  br i1 %50, label %.preheader60.us.us.preheader, label %.preheader60.us.preheader

.preheader60.us.preheader:                        ; preds = %.preheader60.lr.ph.split.us
  %wide.trip.count81 = zext nneg i32 %3 to i64
  br label %.preheader60.us

.preheader60.us.us.preheader:                     ; preds = %.preheader60.lr.ph.split.us
  %53 = zext nneg i32 %15 to i64
  %wide.trip.count86 = zext nneg i32 %3 to i64
  %wide.trip.count91 = zext nneg i32 %4 to i64
  br label %.preheader60.us.us

.preheader60.us.us:                               ; preds = %.preheader60.us.us.preheader, %._crit_edge.us.us
  %.05165.us.us = phi i32 [ %81, %._crit_edge.us.us ], [ 0, %.preheader60.us.us.preheader ]
  %54 = and i32 %.05165.us.us, 63
  %55 = zext nneg i32 %54 to i64
  %56 = shl nuw i64 1, %55
  %57 = lshr i32 %.05165.us.us, 6
  %58 = zext nneg i32 %57 to i64
  %invariant.gep98 = getelementptr i64, ptr %.val.us.us, i64 %58
  br label %70

59:                                               ; preds = %..preheader_crit_edge.us.us, %69
  %indvars.iv88 = phi i64 [ 0, %..preheader_crit_edge.us.us ], [ %indvars.iv.next89, %69 ]
  %60 = xor i64 %indvars.iv88, -1
  %61 = add nsw i64 %53, %60
  %62 = getelementptr inbounds [2000 x i8], ptr %6, i64 0, i64 %61
  %63 = load i8, ptr %62, align 1, !tbaa !61
  %64 = icmp eq i8 %63, 49
  br i1 %64, label %65, label %69

65:                                               ; preds = %59
  %66 = mul nsw i64 %indvars.iv88, %52
  %gep101 = getelementptr i64, ptr %invariant.gep100, i64 %66
  %67 = load i64, ptr %gep101, align 8, !tbaa !62
  %68 = xor i64 %67, %56
  store i64 %68, ptr %gep101, align 8, !tbaa !62
  br label %69

69:                                               ; preds = %65, %59
  %indvars.iv.next89 = add nuw nsw i64 %indvars.iv88, 1
  %exitcond92.not = icmp eq i64 %indvars.iv.next89, %wide.trip.count91
  br i1 %exitcond92.not, label %._crit_edge.us.us, label %59, !llvm.loop !63

70:                                               ; preds = %80, %.preheader60.us.us
  %indvars.iv83 = phi i64 [ %indvars.iv.next84, %80 ], [ 0, %.preheader60.us.us ]
  %71 = xor i64 %indvars.iv83, -1
  %72 = add nsw i64 %51, %71
  %73 = getelementptr inbounds [2000 x i8], ptr %6, i64 0, i64 %72
  %74 = load i8, ptr %73, align 1, !tbaa !61
  %75 = icmp eq i8 %74, 49
  br i1 %75, label %76, label %80

76:                                               ; preds = %70
  %77 = mul nsw i64 %indvars.iv83, %52
  %gep99 = getelementptr i64, ptr %invariant.gep98, i64 %77
  %78 = load i64, ptr %gep99, align 8, !tbaa !62
  %79 = xor i64 %78, %56
  store i64 %79, ptr %gep99, align 8, !tbaa !62
  br label %80

80:                                               ; preds = %76, %70
  %indvars.iv.next84 = add nuw nsw i64 %indvars.iv83, 1
  %exitcond87.not = icmp eq i64 %indvars.iv.next84, %wide.trip.count86
  br i1 %exitcond87.not, label %..preheader_crit_edge.us.us, label %70, !llvm.loop !64

..preheader_crit_edge.us.us:                      ; preds = %80
  %invariant.gep100 = getelementptr i64, ptr %.val55.us.us, i64 %58
  br label %59

._crit_edge.us.us:                                ; preds = %69
  %81 = add nuw nsw i32 %.05165.us.us, 1
  %82 = call ptr @fgets(ptr noundef nonnull %6, i32 noundef 2000, ptr noundef nonnull %7)
  %.not.us.us = icmp eq ptr %82, null
  br i1 %.not.us.us, label %._crit_edge66, label %.preheader60.us.us, !llvm.loop !65

.preheader60.us:                                  ; preds = %.preheader60.us.preheader, %..preheader_crit_edge.us
  %.05165.us = phi i32 [ %99, %..preheader_crit_edge.us ], [ 0, %.preheader60.us.preheader ]
  %83 = and i32 %.05165.us, 63
  %84 = zext nneg i32 %83 to i64
  %85 = shl nuw i64 1, %84
  %86 = lshr i32 %.05165.us, 6
  %87 = zext nneg i32 %86 to i64
  %invariant.gep96 = getelementptr i64, ptr %.val.us.us, i64 %87
  br label %88

88:                                               ; preds = %.preheader60.us, %98
  %indvars.iv78 = phi i64 [ 0, %.preheader60.us ], [ %indvars.iv.next79, %98 ]
  %89 = xor i64 %indvars.iv78, -1
  %90 = add nsw i64 %51, %89
  %91 = getelementptr inbounds [2000 x i8], ptr %6, i64 0, i64 %90
  %92 = load i8, ptr %91, align 1, !tbaa !61
  %93 = icmp eq i8 %92, 49
  br i1 %93, label %94, label %98

94:                                               ; preds = %88
  %95 = mul nsw i64 %indvars.iv78, %52
  %gep97 = getelementptr i64, ptr %invariant.gep96, i64 %95
  %96 = load i64, ptr %gep97, align 8, !tbaa !62
  %97 = xor i64 %96, %85
  store i64 %97, ptr %gep97, align 8, !tbaa !62
  br label %98

98:                                               ; preds = %94, %88
  %indvars.iv.next79 = add nuw nsw i64 %indvars.iv78, 1
  %exitcond82.not = icmp eq i64 %indvars.iv.next79, %wide.trip.count81
  br i1 %exitcond82.not, label %..preheader_crit_edge.us, label %88, !llvm.loop !64

..preheader_crit_edge.us:                         ; preds = %98
  %99 = add nuw nsw i32 %.05165.us, 1
  %100 = call ptr @fgets(ptr noundef nonnull %6, i32 noundef 2000, ptr noundef nonnull %7)
  %.not.us = icmp eq ptr %100, null
  br i1 %.not.us, label %._crit_edge66, label %.preheader60.us, !llvm.loop !65

.preheader60.lr.ph.split:                         ; preds = %.preheader60.lr.ph
  br i1 %50, label %.preheader60.us67.preheader, label %.preheader60

.preheader60.us67.preheader:                      ; preds = %.preheader60.lr.ph.split
  %101 = sext i32 %25 to i64
  %wide.trip.count = zext nneg i32 %4 to i64
  br label %.preheader60.us67

.preheader60.us67:                                ; preds = %.preheader60.us67.preheader, %._crit_edge.us73
  %.05165.us68 = phi i32 [ %120, %._crit_edge.us73 ], [ 0, %.preheader60.us67.preheader ]
  %102 = and i32 %.05165.us68, 63
  %103 = zext nneg i32 %102 to i64
  %104 = shl nuw i64 1, %103
  %105 = lshr i32 %.05165.us68, 6
  %106 = zext nneg i32 %105 to i64
  %invariant.gep = getelementptr i64, ptr %.val55.us.us, i64 %106
  br label %107

107:                                              ; preds = %.preheader60.us67, %119
  %indvars.iv = phi i64 [ 0, %.preheader60.us67 ], [ %indvars.iv.next, %119 ]
  %108 = trunc i64 %indvars.iv to i32
  %109 = xor i32 %108, -1
  %110 = add i32 %15, %109
  %111 = sext i32 %110 to i64
  %112 = getelementptr inbounds [2000 x i8], ptr %6, i64 0, i64 %111
  %113 = load i8, ptr %112, align 1, !tbaa !61
  %114 = icmp eq i8 %113, 49
  br i1 %114, label %115, label %119

115:                                              ; preds = %107
  %116 = mul nsw i64 %indvars.iv, %101
  %gep = getelementptr i64, ptr %invariant.gep, i64 %116
  %117 = load i64, ptr %gep, align 8, !tbaa !62
  %118 = xor i64 %117, %104
  store i64 %118, ptr %gep, align 8, !tbaa !62
  br label %119

119:                                              ; preds = %115, %107
  %indvars.iv.next = add nuw nsw i64 %indvars.iv, 1
  %exitcond.not = icmp eq i64 %indvars.iv.next, %wide.trip.count
  br i1 %exitcond.not, label %._crit_edge.us73, label %107, !llvm.loop !63

._crit_edge.us73:                                 ; preds = %119
  %120 = add nuw nsw i32 %.05165.us68, 1
  %121 = call ptr @fgets(ptr noundef nonnull %6, i32 noundef 2000, ptr noundef nonnull %7)
  %.not.us69 = icmp eq ptr %121, null
  br i1 %.not.us69, label %._crit_edge66, label %.preheader60.us67, !llvm.loop !65

.preheader60:                                     ; preds = %.preheader60.lr.ph.split, %.preheader60
  %122 = call ptr @fgets(ptr noundef nonnull %6, i32 noundef 2000, ptr noundef nonnull %7)
  %.not = icmp eq ptr %122, null
  br i1 %.not, label %._crit_edge66, label %.preheader60, !llvm.loop !65

._crit_edge66:                                    ; preds = %.preheader60, %._crit_edge.us73, %..preheader_crit_edge.us, %._crit_edge.us.us, %Vec_WrdStart.exit59
  %123 = call i32 @fclose(ptr noundef nonnull %7)
  store ptr %27, ptr %1, align 8, !tbaa !66
  store ptr %38, ptr %2, align 8, !tbaa !66
  %124 = shl nsw i32 %25, 6
  %125 = sub nsw i32 %124, %18
  %126 = call i32 (ptr, ...) @printf(ptr noundef nonnull dereferenceable(1) @.str.9, i32 noundef %25, i32 noundef %3, i32 noundef %4, i32 noundef %125)
  br label %127

127:                                              ; preds = %._crit_edge66, %20, %9
  call void @llvm.lifetime.end.p0(i64 2000, ptr nonnull %6) #24
  ret void
}